; Function Attrs: mustprogress nounwind uwtable
define void @_ZN4LIEF3DEX4TypeD2Ev(ptr noundef nonnull align 8 dereferenceable(24) %0) unnamed_addr #1 align 2 personality ptr @__gxx_personality_v0 {
  store ptr getelementptr inbounds ({ [7 x ptr] }, ptr @_ZTVN4LIEF3DEX4TypeE, i64 0, i32 0, i64 2), ptr %0, align 8
  %2 = getelementptr inbounds i8, ptr %0, i64 8
  %3 = load i32, ptr %2, align 8
  switch i32 %3, label %22 [
    i32 3, label %4
    i32 1, label %18
  ]

4:                                                ; preds = %1
  %5 = getelementptr inbounds i8, ptr %0, i64 16
  %6 = load ptr, ptr %5, align 8
  %7 = icmp eq ptr %6, null
  br i1 %7, label %22, label %8

8:                                                ; preds = %4
  %9 = load ptr, ptr %6, align 8
  %10 = getelementptr inbounds i8, ptr %6, i64 8
  %11 = load ptr, ptr %10, align 8
  %.not4.i.i.i.i = icmp eq ptr %9, %11
  br i1 %.not4.i.i.i.i, label %_ZSt8_DestroyIPN4LIEF3DEX4TypeES2_EvT_S4_RSaIT0_E.exit.i, label %.lr.ph.i.i.i.i

.lr.ph.i.i.i.i:                                   ; preds = %8, %.lr.ph.i.i.i.i
  %.05.i.i.i.i = phi ptr [ %15, %.lr.ph.i.i.i.i ], [ %9, %8 ]
  %12 = load ptr, ptr %.05.i.i.i.i, align 8
  %13 = getelementptr inbounds i8, ptr %12, i64 16
  %14 = load ptr, ptr %13, align 8
  tail call void %14(ptr noundef nonnull align 8 dereferenceable(24) %.05.i.i.i.i) #20
  %15 = getelementptr inbounds i8, ptr %.05.i.i.i.i, i64 24
  %.not.i.i.i.i = icmp eq ptr %15, %11
  br i1 %.not.i.i.i.i, label %_ZSt8_DestroyIPN4LIEF3DEX4TypeES2_EvT_S4_RSaIT0_E.exitthread-pre-split.i, label %.lr.ph.i.i.i.i, !llvm.loop !9

_ZSt8_DestroyIPN4LIEF3DEX4TypeES2_EvT_S4_RSaIT0_E.exitthread-pre-split.i: ; preds = %.lr.ph.i.i.i.i
  %.pr.i = load ptr, ptr %6, align 8
  br label %_ZSt8_DestroyIPN4LIEF3DEX4TypeES2_EvT_S4_RSaIT0_E.exit.i

_ZSt8_DestroyIPN4LIEF3DEX4TypeES2_EvT_S4_RSaIT0_E.exit.i: ; preds = %_ZSt8_DestroyIPN4LIEF3DEX4TypeES2_EvT_S4_RSaIT0_E.exitthread-pre-split.i, %8
  %16 = phi ptr [ %.pr.i, %_ZSt8_DestroyIPN4LIEF3DEX4TypeES2_EvT_S4_RSaIT0_E.exitthread-pre-split.i ], [ %9, %8 ]
  %.not.i.i.i = icmp eq ptr %16, null
  br i1 %.not.i.i.i, label %.sink.split, label %17

17:                                               ; preds = %_ZSt8_DestroyIPN4LIEF3DEX4TypeES2_EvT_S4_RSaIT0_E.exit.i
  tail call void @_ZdlPv(ptr noundef nonnull %16) #21
  br label %.sink.split

18:                                               ; preds = %1
  %19 = getelementptr inbounds i8, ptr %0, i64 16
  %20 = load ptr, ptr %19, align 8
  %21 = icmp eq ptr %20, null
  br i1 %21, label %22, label %.sink.split

.sink.split:                                      ; preds = %18, %17, %_ZSt8_DestroyIPN4LIEF3DEX4TypeES2_EvT_S4_RSaIT0_E.exit.i
  %.sink = phi ptr [ %6, %_ZSt8_DestroyIPN4LIEF3DEX4TypeES2_EvT_S4_RSaIT0_E.exit.i ], [ %6, %17 ], [ %20, %18 ]
  tail call void @_ZdlPv(ptr noundef nonnull %.sink) #21
  br label %22

22:                                               ; preds = %.sink.split, %1, %18, %4
  tail call void @_ZN4LIEF6ObjectD2Ev(ptr noundef nonnull align 8 dereferenceable(8) %0) #20
  ret void
}